; ModuleID = '58/952.c'
source_filename = "58/952.c"
target datalayout = "e-m:e-p270:32:32-p271:32:32-p272:64:64-i64:64-f80:128-n8:16:32:64-S128"
target triple = "x86_64-pc-linux-gnu"

@.str = private unnamed_addr constant [4 x i8] c"%d\0A\00", align 1

; Function Attrs: noinline nounwind uwtable
define dso_local i32 @main() #0 {
  %1 = alloca i32, align 4
  %2 = alloca i32, align 4
  %3 = alloca i32, align 4
  %4 = alloca i32, align 4
  %5 = alloca i32, align 4
  %6 = alloca i8**, align 8
  store i32 0, i32* %1, align 4
  store i32 1, i32* %5, align 4
  %7 = call i32 (i8*, ...) @__isoc99_scanf(i8* getelementptr inbounds ([4 x i8], [4 x i8]* @.str, i64 0, i64 0), i32* %4)
  %8 = load i32, i32* %4, align 4
  %9 = sext i32 %8 to i64
  %10 = mul i64 %9, 8
  %11 = call noalias i8* @malloc(i64 %10) #3
  %12 = bitcast i8* %11 to i8**
  store i8** %12, i8*** %6, align 8
  store i32 0, i32* %2, align 4
  br label %13

13:                                               ; preds = %23, %0
  %14 = load i32, i32* %2, align 4
  %15 = load i32, i32* %4, align 4
  %16 = icmp slt i32 %14, %15
  br i1 %16, label %17, label %26

17:                                               ; preds = %13
  %18 = call noalias i8* @malloc(i64 81) #3
  %19 = load i8**, i8*** %6, align 8
  %20 = load i32, i32* %2, align 4
  %21 = sext i32 %20 to i64
  %22 = getelementptr inbounds i8*, i8** %19, i64 %21
  store i8* %18, i8** %22, align 8
  br label %23

23:                                               ; preds = %17
  %24 = load i32, i32* %2, align 4
  %25 = add nsw i32 %24, 1
  store i32 %25, i32* %2, align 4
  br label %13

26:                                               ; preds = %13
  store i32 0, i32* %2, align 4
  br label %27

27:                                               ; preds = %38, %26
  %28 = load i32, i32* %2, align 4
  %29 = load i32, i32* %4, align 4
  %30 = icmp slt i32 %28, %29
  br i1 %30, label %31, label %41

31:                                               ; preds = %27
  %32 = load i8**, i8*** %6, align 8
  %33 = load i32, i32* %2, align 4
  %34 = sext i32 %33 to i64
  %35 = getelementptr inbounds i8*, i8** %32, i64 %34
  %36 = load i8*, i8** %35, align 8
  %37 = call i32 (i8*, ...) bitcast (i32 (...)* @gets to i32 (i8*, ...)*)(i8* %36)
  br label %38

38:                                               ; preds = %31
  %39 = load i32, i32* %2, align 4
  %40 = add nsw i32 %39, 1
  store i32 %40, i32* %2, align 4
  br label %27

41:                                               ; preds = %27
  store i32 0, i32* %2, align 4
  br label %42

42:                                               ; preds = %202, %41
  %43 = load i32, i32* %2, align 4
  %44 = load i32, i32* %4, align 4
  %45 = icmp slt i32 %43, %44
  br i1 %45, label %46, label %205

46:                                               ; preds = %42
  %47 = load i8**, i8*** %6, align 8
  %48 = load i32, i32* %2, align 4
  %49 = sext i32 %48 to i64
  %50 = getelementptr inbounds i8*, i8** %47, i64 %49
  %51 = load i8*, i8** %50, align 8
  %52 = getelementptr inbounds i8, i8* %51, i64 0
  %53 = load i8, i8* %52, align 1
  %54 = sext i8 %53 to i32
  %55 = icmp eq i32 %54, 95
  br i1 %55, label %97, label %56

56:                                               ; preds = %46
  %57 = load i8**, i8*** %6, align 8
  %58 = load i32, i32* %2, align 4
  %59 = sext i32 %58 to i64
  %60 = getelementptr inbounds i8*, i8** %57, i64 %59
  %61 = load i8*, i8** %60, align 8
  %62 = getelementptr inbounds i8, i8* %61, i64 0
  %63 = load i8, i8* %62, align 1
  %64 = sext i8 %63 to i32
  %65 = icmp sge i32 %64, 97
  br i1 %65, label %66, label %76

66:                                               ; preds = %56
  %67 = load i8**, i8*** %6, align 8
  %68 = load i32, i32* %2, align 4
  %69 = sext i32 %68 to i64
  %70 = getelementptr inbounds i8*, i8** %67, i64 %69
  %71 = load i8*, i8** %70, align 8
  %72 = getelementptr inbounds i8, i8* %71, i64 0
  %73 = load i8, i8* %72, align 1
  %74 = sext i8 %73 to i32
  %75 = icmp sle i32 %74, 122
  br i1 %75, label %97, label %76

76:                                               ; preds = %66, %56
  %77 = load i8**, i8*** %6, align 8
  %78 = load i32, i32* %2, align 4
  %79 = sext i32 %78 to i64
  %80 = getelementptr inbounds i8*, i8** %77, i64 %79
  %81 = load i8*, i8** %80, align 8
  %82 = getelementptr inbounds i8, i8* %81, i64 0
  %83 = load i8, i8* %82, align 1
  %84 = sext i8 %83 to i32
  %85 = icmp sge i32 %84, 65
  br i1 %85, label %86, label %96

86:                                               ; preds = %76
  %87 = load i8**, i8*** %6, align 8
  %88 = load i32, i32* %2, align 4
  %89 = sext i32 %88 to i64
  %90 = getelementptr inbounds i8*, i8** %87, i64 %89
  %91 = load i8*, i8** %90, align 8
  %92 = getelementptr inbounds i8, i8* %91, i64 0
  %93 = load i8, i8* %92, align 1
  %94 = sext i8 %93 to i32
  %95 = icmp sle i32 %94, 90
  br i1 %95, label %97, label %96

96:                                               ; preds = %86, %76
  store i32 0, i32* %5, align 4
  br label %97

97:                                               ; preds = %96, %86, %66, %46
  store i32 0, i32* %3, align 4
  br label %98

98:                                               ; preds = %196, %97
  %99 = load i8**, i8*** %6, align 8
  %100 = load i32, i32* %2, align 4
  %101 = sext i32 %100 to i64
  %102 = getelementptr inbounds i8*, i8** %99, i64 %101
  %103 = load i8*, i8** %102, align 8
  %104 = load i32, i32* %3, align 4
  %105 = sext i32 %104 to i64
  %106 = getelementptr inbounds i8, i8* %103, i64 %105
  %107 = load i8, i8* %106, align 1
  %108 = sext i8 %107 to i32
  %109 = icmp ne i32 %108, 0
  br i1 %109, label %110, label %199

110:                                              ; preds = %98
  %111 = load i8**, i8*** %6, align 8
  %112 = load i32, i32* %2, align 4
  %113 = sext i32 %112 to i64
  %114 = getelementptr inbounds i8*, i8** %111, i64 %113
  %115 = load i8*, i8** %114, align 8
  %116 = load i32, i32* %3, align 4
  %117 = sext i32 %116 to i64
  %118 = getelementptr inbounds i8, i8* %115, i64 %117
  %119 = load i8, i8* %118, align 1
  %120 = sext i8 %119 to i32
  %121 = icmp sge i32 %120, 48
  br i1 %121, label %122, label %134

122:                                              ; preds = %110
  %123 = load i8**, i8*** %6, align 8
  %124 = load i32, i32* %2, align 4
  %125 = sext i32 %124 to i64
  %126 = getelementptr inbounds i8*, i8** %123, i64 %125
  %127 = load i8*, i8** %126, align 8
  %128 = load i32, i32* %3, align 4
  %129 = sext i32 %128 to i64
  %130 = getelementptr inbounds i8, i8* %127, i64 %129
  %131 = load i8, i8* %130, align 1
  %132 = sext i8 %131 to i32
  %133 = icmp sle i32 %132, 57
  br i1 %133, label %195, label %134

134:                                              ; preds = %122, %110
  %135 = load i8**, i8*** %6, align 8
  %136 = load i32, i32* %2, align 4
  %137 = sext i32 %136 to i64
  %138 = getelementptr inbounds i8*, i8** %135, i64 %137
  %139 = load i8*, i8** %138, align 8
  %140 = load i32, i32* %3, align 4
  %141 = sext i32 %140 to i64
  %142 = getelementptr inbounds i8, i8* %139, i64 %141
  %143 = load i8, i8* %142, align 1
  %144 = sext i8 %143 to i32
  %145 = icmp sge i32 %144, 97
  br i1 %145, label %146, label %158

146:                                              ; preds = %134
  %147 = load i8**, i8*** %6, align 8
  %148 = load i32, i32* %2, align 4
  %149 = sext i32 %148 to i64
  %150 = getelementptr inbounds i8*, i8** %147, i64 %149
  %151 = load i8*, i8** %150, align 8
  %152 = load i32, i32* %3, align 4
  %153 = sext i32 %152 to i64
  %154 = getelementptr inbounds i8, i8* %151, i64 %153
  %155 = load i8, i8* %154, align 1
  %156 = sext i8 %155 to i32
  %157 = icmp sle i32 %156, 122
  br i1 %157, label %195, label %158

158:                                              ; preds = %146, %134
  %159 = load i8**, i8*** %6, align 8
  %160 = load i32, i32* %2, align 4
  %161 = sext i32 %160 to i64
  %162 = getelementptr inbounds i8*, i8** %159, i64 %161
  %163 = load i8*, i8** %162, align 8
  %164 = load i32, i32* %3, align 4
  %165 = sext i32 %164 to i64
  %166 = getelementptr inbounds i8, i8* %163, i64 %165
  %167 = load i8, i8* %166, align 1
  %168 = sext i8 %167 to i32
  %169 = icmp sle i32 %168, 90
  br i1 %169, label %170, label %182

170:                                              ; preds = %158
  %171 = load i8**, i8*** %6, align 8
  %172 = load i32, i32* %2, align 4
  %173 = sext i32 %172 to i64
  %174 = getelementptr inbounds i8*, i8** %171, i64 %173
  %175 = load i8*, i8** %174, align 8
  %176 = load i32, i32* %3, align 4
  %177 = sext i32 %176 to i64
  %178 = getelementptr inbounds i8, i8* %175, i64 %177
  %179 = load i8, i8* %178, align 1
  %180 = sext i8 %179 to i32
  %181 = icmp sge i32 %180, 65
  br i1 %181, label %195, label %182

182:                                              ; preds = %170, %158
  %183 = load i8**, i8*** %6, align 8
  %184 = load i32, i32* %2, align 4
  %185 = sext i32 %184 to i64
  %186 = getelementptr inbounds i8*, i8** %183, i64 %185
  %187 = load i8*, i8** %186, align 8
  %188 = load i32, i32* %3, align 4
  %189 = sext i32 %188 to i64
  %190 = getelementptr inbounds i8, i8* %187, i64 %189
  %191 = load i8, i8* %190, align 1
  %192 = sext i8 %191 to i32
  %193 = icmp eq i32 %192, 95
  br i1 %193, label %195, label %194

194:                                              ; preds = %182
  store i32 0, i32* %5, align 4
  br label %195

195:                                              ; preds = %194, %182, %170, %146, %122
  br label %196

196:                                              ; preds = %195
  %197 = load i32, i32* %3, align 4
  %198 = add nsw i32 %197, 1
  store i32 %198, i32* %3, align 4
  br label %98

199:                                              ; preds = %98
  %200 = load i32, i32* %5, align 4
  %201 = call i32 (i8*, ...) @printf(i8* getelementptr inbounds ([4 x i8], [4 x i8]* @.str, i64 0, i64 0), i32 %200)
  store i32 1, i32* %5, align 4
  br label %202

202:                                              ; preds = %199
  %203 = load i32, i32* %2, align 4
  %204 = add nsw i32 %203, 1
  store i32 %204, i32* %2, align 4
  br label %42

205:                                              ; preds = %42
  store i32 0, i32* %2, align 4
  br label %206

206:                                              ; preds = %216, %205
  %207 = load i32, i32* %2, align 4
  %208 = load i32, i32* %4, align 4
  %209 = icmp slt i32 %207, %208
  br i1 %209, label %210, label %219

210:                                              ; preds = %206
  %211 = load i8**, i8*** %6, align 8
  %212 = load i32, i32* %2, align 4
  %213 = sext i32 %212 to i64
  %214 = getelementptr inbounds i8*, i8** %211, i64 %213
  %215 = load i8*, i8** %214, align 8
  call void @free(i8* %215) #3
  br label %216

216:                                              ; preds = %210
  %217 = load i32, i32* %2, align 4
  %218 = add nsw i32 %217, 1
  store i32 %218, i32* %2, align 4
  br label %206

219:                                              ; preds = %206
  %220 = load i8**, i8*** %6, align 8
  %221 = bitcast i8** %220 to i8*
  call void @free(i8* %221) #3
  %222 = load i32, i32* %1, align 4
  ret i32 %222
}

declare dso_local i32 @__isoc99_scanf(i8*, ...) #1

; Function Attrs: nounwind
declare dso_local noalias i8* @malloc(i64) #2

declare dso_local i32 @gets(...) #1

declare dso_local i32 @printf(i8*, ...) #1

; Function Attrs: nounwind
declare dso_local void @free(i8*) #2


!llvm.module.flags = !{!0}
!llvm.ident = !{!1}

!0 = !{i32 1, !"wchar_size", i32 4}
!1 = !{!"clang version 10.0.0-4ubuntu1 "}
